; Function Attrs: mustprogress uwtable
define noundef nonnull align 8 dereferenceable(8) ptr @_ZN32pxrInternal_v0_24__pxrReserved__10UsdZipFile8IteratoraSERKS1_(ptr noundef nonnull returned align 8 dereferenceable(8) %0, ptr noundef nonnull align 8 dereferenceable(8) %1) local_unnamed_addr #0 align 2 personality ptr @__gxx_personality_v0 {
  %3 = alloca %"class.pxrInternal_v0_24__pxrReserved__::UsdZipFile::Iterator", align 8
  call void @_ZN32pxrInternal_v0_24__pxrReserved__10UsdZipFile8IteratorC1ERKS1_(ptr noundef nonnull align 8 dereferenceable(8) %3, ptr noundef nonnull align 8 dereferenceable(8) %1)
  %4 = load ptr, ptr %3, align 8
  store ptr null, ptr %3, align 8
  %5 = load ptr, ptr %0, align 8
  store ptr %4, ptr %0, align 8
  %.not.i.i.i.i.i = icmp eq ptr %5, null
  br i1 %.not.i.i.i.i.i, label %_ZN32pxrInternal_v0_24__pxrReserved__10UsdZipFile8IteratoraSEOS1_.exit, label %_ZNKSt14default_deleteIN32pxrInternal_v0_24__pxrReserved__10UsdZipFile8Iterator13_IteratorDataEEclEPS3_.exit.i.i.i.i.i

_ZNKSt14default_deleteIN32pxrInternal_v0_24__pxrReserved__10UsdZipFile8Iterator13_IteratorDataEEclEPS3_.exit.i.i.i.i.i: ; preds = %2
  call void @_ZdlPvm(ptr noundef nonnull %5, i64 noundef 80) #23
  br label %_ZN32pxrInternal_v0_24__pxrReserved__10UsdZipFile8IteratoraSEOS1_.exit

_ZN32pxrInternal_v0_24__pxrReserved__10UsdZipFile8IteratoraSEOS1_.exit: ; preds = %2, %_ZNKSt14default_deleteIN32pxrInternal_v0_24__pxrReserved__10UsdZipFile8Iterator13_IteratorDataEEclEPS3_.exit.i.i.i.i.i
  call void @_ZN32pxrInternal_v0_24__pxrReserved__10UsdZipFile8IteratorD1Ev(ptr noundef nonnull align 8 dereferenceable(8) %3) #21
  ret ptr %0
}